target datalayout = "e-m:e-p270:32:32-p271:32:32-p272:64:64-i64:64-i128:128-f80:128-n8:16:32:64-S128"
target triple = "x86_64-pc-linux-gnu"

%struct.Pxy_t = type { double, double }

; Function Attrs: nounwind uwtable
define double @area2(double %0, double %1, double %2, double %3, double %4, double %5) #0 {
  %7 = alloca %struct.Pxy_t, align 8
  %8 = alloca %struct.Pxy_t, align 8
  %9 = alloca %struct.Pxy_t, align 8
  %10 = getelementptr inbounds { double, double }, ptr %7, i32 0, i32 0
  store double %0, ptr %10, align 8
  %11 = getelementptr inbounds { double, double }, ptr %7, i32 0, i32 1
  store double %1, ptr %11, align 8
  %12 = getelementptr inbounds { double, double }, ptr %8, i32 0, i32 0
  store double %2, ptr %12, align 8
  %13 = getelementptr inbounds { double, double }, ptr %8, i32 0, i32 1
  store double %3, ptr %13, align 8
  %14 = getelementptr inbounds { double, double }, ptr %9, i32 0, i32 0
  store double %4, ptr %14, align 8
  %15 = getelementptr inbounds { double, double }, ptr %9, i32 0, i32 1
  store double %5, ptr %15, align 8
  %16 = getelementptr inbounds %struct.Pxy_t, ptr %7, i32 0, i32 1
  %17 = load double, ptr %16, align 8
  %18 = getelementptr inbounds %struct.Pxy_t, ptr %8, i32 0, i32 1
  %19 = load double, ptr %18, align 8
  %20 = fsub double %17, %19
  %21 = getelementptr inbounds %struct.Pxy_t, ptr %9, i32 0, i32 0
  %22 = load double, ptr %21, align 8
  %23 = getelementptr inbounds %struct.Pxy_t, ptr %8, i32 0, i32 0
  %24 = load double, ptr %23, align 8
  %25 = fsub double %22, %24
  %26 = getelementptr inbounds %struct.Pxy_t, ptr %9, i32 0, i32 1
  %27 = load double, ptr %26, align 8
  %28 = getelementptr inbounds %struct.Pxy_t, ptr %8, i32 0, i32 1
  %29 = load double, ptr %28, align 8
  %30 = fsub double %27, %29
  %31 = getelementptr inbounds %struct.Pxy_t, ptr %7, i32 0, i32 0
  %32 = load double, ptr %31, align 8
  %33 = getelementptr inbounds %struct.Pxy_t, ptr %8, i32 0, i32 0
  %34 = load double, ptr %33, align 8
  %35 = fsub double %32, %34
  %36 = fmul double %30, %35
  %37 = fneg double %36
  %38 = call double @llvm.fmuladd.f64(double %20, double %25, double %37)
  ret double %38
}